target datalayout = "e-m:e-p270:32:32-p271:32:32-p272:64:64-i64:64-i128:128-f80:128-n8:16:32:64-S128"
target triple = "x86_64-pc-linux-gnu"

%struct.pointf_s = type { double, double }
%struct.GVJ_s = type { ptr, ptr, ptr, ptr, ptr, ptr, i32, ptr, ptr, ptr, ptr, i64, i64, ptr, i32, %struct.gvplugin_active_render_s, %struct.gvplugin_active_device_s, %struct.gvplugin_active_loadimage_t, ptr, %struct.pointf_s, i8, ptr, i32, ptr, i8, ptr, i32, i32, i32, %struct.point, %struct.point, %struct.point, %struct.point, %struct.point, i32, %struct.boxf, %struct.pointf_s, %struct.boxf, %struct.boxf, %struct.pointf_s, %struct.pointf_s, double, i32, %struct.pointf_s, %struct.boxf, %struct.pointf_s, %struct.pointf_s, i32, i32, %struct.box, %struct.box, %struct.pointf_s, %struct.pointf_s, %struct.pointf_s, i8, i8, i8, i8, i8, i8, %struct.pointf_s, %struct.pointf_s, ptr, ptr, ptr, ptr, ptr, ptr, i64, ptr }
%struct.gvplugin_active_render_s = type { ptr, i32, ptr, ptr }
%struct.gvplugin_active_device_s = type { ptr, i32, ptr, ptr }
%struct.gvplugin_active_loadimage_t = type { ptr, i32, ptr }
%struct.point = type { i32, i32 }
%struct.boxf = type { %struct.pointf_s, %struct.pointf_s }
%struct.box = type { %struct.point, %struct.point }
%struct.obj_state_s = type { ptr, i32, %union.anon, i32, %struct.color_s, %struct.color_s, %struct.color_s, i32, double, i32, i32, double, ptr, double, double, double, ptr, ptr, ptr, ptr, ptr, ptr, ptr, ptr, ptr, ptr, ptr, ptr, ptr, ptr, ptr, ptr, ptr, i16, i32, i64, ptr, i64, ptr, ptr, i32, ptr, i32, ptr }
%union.anon = type { ptr }
%struct.color_s = type { %union.anon.0, i32 }
%union.anon.0 = type { [4 x double] }
%struct.textspan_t = type { ptr, ptr, ptr, ptr, double, double, %struct.pointf_s, i8 }
%struct.textfont_t = type { ptr, ptr, ptr, double, i32 }

@dashed = internal global [1 x double] [double 6.000000e+00], align 8

; Function Attrs: nounwind uwtable
define internal void @cairogen_set_color(ptr noundef %0, ptr noundef %1) #0 {
  %3 = alloca ptr, align 8
  %4 = alloca ptr, align 8
  store ptr %0, ptr %3, align 8, !tbaa !34
  store ptr %1, ptr %4, align 8, !tbaa !89
  %5 = load ptr, ptr %3, align 8, !tbaa !34
  %6 = load ptr, ptr %4, align 8, !tbaa !89
  %7 = getelementptr inbounds nuw %struct.color_s, ptr %6, i32 0, i32 0
  %8 = getelementptr inbounds [4 x double], ptr %7, i64 0, i64 0
  %9 = load double, ptr %8, align 8, !tbaa !44
  %10 = load ptr, ptr %4, align 8, !tbaa !89
  %11 = getelementptr inbounds nuw %struct.color_s, ptr %10, i32 0, i32 0
  %12 = getelementptr inbounds [4 x double], ptr %11, i64 0, i64 1
  %13 = load double, ptr %12, align 8, !tbaa !44
  %14 = load ptr, ptr %4, align 8, !tbaa !89
  %15 = getelementptr inbounds nuw %struct.color_s, ptr %14, i32 0, i32 0
  %16 = getelementptr inbounds [4 x double], ptr %15, i64 0, i64 2
  %17 = load double, ptr %16, align 8, !tbaa !44
  %18 = load ptr, ptr %4, align 8, !tbaa !89
  %19 = getelementptr inbounds nuw %struct.color_s, ptr %18, i32 0, i32 0
  %20 = getelementptr inbounds [4 x double], ptr %19, i64 0, i64 3
  %21 = load double, ptr %20, align 8, !tbaa !44
  call void @cairo_set_source_rgba(ptr noundef %5, double noundef %9, double noundef %13, double noundef %17, double noundef %21)
  ret void
}

; Function Attrs: nounwind uwtable
define internal void @cairogen_textspan(ptr noundef %0, double %1, double %2, ptr noundef %3) #0 {
  %5 = alloca %struct.pointf_s, align 8
  %6 = alloca ptr, align 8
  %7 = alloca ptr, align 8
  %8 = alloca ptr, align 8
  %9 = alloca ptr, align 8
  %10 = alloca [2 x %struct.pointf_s], align 16
  %11 = getelementptr inbounds nuw { double, double }, ptr %5, i32 0, i32 0
  store double %1, ptr %11, align 8
  %12 = getelementptr inbounds nuw { double, double }, ptr %5, i32 0, i32 1
  store double %2, ptr %12, align 8
  store ptr %0, ptr %6, align 8, !tbaa !3
  store ptr %3, ptr %7, align 8, !tbaa !73
  call void @llvm.lifetime.start.p0(i64 8, ptr %8) #14
  %13 = load ptr, ptr %6, align 8, !tbaa !3
  %14 = getelementptr inbounds nuw %struct.GVJ_s, ptr %13, i32 0, i32 4
  %15 = load ptr, ptr %14, align 8, !tbaa !64
  store ptr %15, ptr %8, align 8, !tbaa !65
  call void @llvm.lifetime.start.p0(i64 8, ptr %9) #14
  %16 = load ptr, ptr %6, align 8, !tbaa !3
  %17 = getelementptr inbounds nuw %struct.GVJ_s, ptr %16, i32 0, i32 23
  %18 = load ptr, ptr %17, align 8, !tbaa !33
  store ptr %18, ptr %9, align 8, !tbaa !34
  call void @llvm.lifetime.start.p0(i64 32, ptr %10) #14
  %19 = load ptr, ptr %9, align 8, !tbaa !34
  call void @cairo_set_dash(ptr noundef %19, ptr noundef @dashed, i32 noundef 0, double noundef 0.000000e+00)
  %20 = load ptr, ptr %9, align 8, !tbaa !34
  %21 = load ptr, ptr %8, align 8, !tbaa !65
  %22 = getelementptr inbounds nuw %struct.obj_state_s, ptr %21, i32 0, i32 4
  call void @cairogen_set_color(ptr noundef %20, ptr noundef %22)
  %23 = load ptr, ptr %7, align 8, !tbaa !73
  %24 = getelementptr inbounds nuw %struct.textspan_t, ptr %23, i32 0, i32 7
  %25 = load i8, ptr %24, align 8, !tbaa !74
  %26 = sext i8 %25 to i32
  switch i32 %26, label %40 [
    i32 114, label %27
    i32 108, label %35
    i32 110, label %39
  ]

27:                                               ; preds = %4
  %28 = load ptr, ptr %7, align 8, !tbaa !73
  %29 = getelementptr inbounds nuw %struct.textspan_t, ptr %28, i32 0, i32 6
  %30 = getelementptr inbounds nuw %struct.pointf_s, ptr %29, i32 0, i32 0
  %31 = load double, ptr %30, align 8, !tbaa !76
  %32 = getelementptr inbounds nuw %struct.pointf_s, ptr %5, i32 0, i32 0
  %33 = load double, ptr %32, align 8, !tbaa !71
  %34 = fsub double %33, %31
  store double %34, ptr %32, align 8, !tbaa !71
  br label %49

35:                                               ; preds = %4
  %36 = getelementptr inbounds nuw %struct.pointf_s, ptr %5, i32 0, i32 0
  %37 = load double, ptr %36, align 8, !tbaa !71
  %38 = fsub double %37, 0.000000e+00
  store double %38, ptr %36, align 8, !tbaa !71
  br label %49

39:                                               ; preds = %4
  br label %40

40:                                               ; preds = %4, %39
  %41 = load ptr, ptr %7, align 8, !tbaa !73
  %42 = getelementptr inbounds nuw %struct.textspan_t, ptr %41, i32 0, i32 6
  %43 = getelementptr inbounds nuw %struct.pointf_s, ptr %42, i32 0, i32 0
  %44 = load double, ptr %43, align 8, !tbaa !76
  %45 = fdiv double %44, 2.000000e+00
  %46 = getelementptr inbounds nuw %struct.pointf_s, ptr %5, i32 0, i32 0
  %47 = load double, ptr %46, align 8, !tbaa !71
  %48 = fsub double %47, %45
  store double %48, ptr %46, align 8, !tbaa !71
  br label %49

49:                                               ; preds = %40, %35, %27
  %50 = load ptr, ptr %7, align 8, !tbaa !73
  %51 = getelementptr inbounds nuw %struct.textspan_t, ptr %50, i32 0, i32 5
  %52 = load double, ptr %51, align 8, !tbaa !77
  %53 = load ptr, ptr %7, align 8, !tbaa !73
  %54 = getelementptr inbounds nuw %struct.textspan_t, ptr %53, i32 0, i32 4
  %55 = load double, ptr %54, align 8, !tbaa !78
  %56 = fadd double %52, %55
  %57 = getelementptr inbounds nuw %struct.pointf_s, ptr %5, i32 0, i32 1
  %58 = load double, ptr %57, align 8, !tbaa !72
  %59 = fadd double %58, %56
  store double %59, ptr %57, align 8, !tbaa !72
  %60 = load ptr, ptr %9, align 8, !tbaa !34
  %61 = getelementptr inbounds nuw %struct.pointf_s, ptr %5, i32 0, i32 0
  %62 = load double, ptr %61, align 8, !tbaa !71
  %63 = getelementptr inbounds nuw %struct.pointf_s, ptr %5, i32 0, i32 1
  %64 = load double, ptr %63, align 8, !tbaa !72
  %65 = fneg double %64
  call void @cairo_move_to(ptr noundef %60, double noundef %62, double noundef %65)
  %66 = load ptr, ptr %9, align 8, !tbaa !34
  call void @cairo_save(ptr noundef %66)
  %67 = load ptr, ptr %9, align 8, !tbaa !34
  call void @cairo_scale(ptr noundef %67, double noundef 7.500000e-01, double noundef 7.500000e-01)
  %68 = load ptr, ptr %9, align 8, !tbaa !34
  %69 = load ptr, ptr %7, align 8, !tbaa !73
  %70 = getelementptr inbounds nuw %struct.textspan_t, ptr %69, i32 0, i32 2
  %71 = load ptr, ptr %70, align 8, !tbaa !79
  call void @pango_cairo_show_layout(ptr noundef %68, ptr noundef %71)
  %72 = load ptr, ptr %9, align 8, !tbaa !34
  call void @cairo_restore(ptr noundef %72)
  %73 = load ptr, ptr %7, align 8, !tbaa !73
  %74 = getelementptr inbounds nuw %struct.textspan_t, ptr %73, i32 0, i32 1
  %75 = load ptr, ptr %74, align 8, !tbaa !80
  %76 = icmp ne ptr %75, null
  br i1 %76, label %77, label %108

77:                                               ; preds = %49
  %78 = load ptr, ptr %7, align 8, !tbaa !73
  %79 = getelementptr inbounds nuw %struct.textspan_t, ptr %78, i32 0, i32 1
  %80 = load ptr, ptr %79, align 8, !tbaa !80
  %81 = getelementptr inbounds nuw %struct.textfont_t, ptr %80, i32 0, i32 4
  %82 = load i32, ptr %81, align 8
  %83 = and i32 %82, 127
  %84 = and i32 %83, 64
  %85 = icmp ne i32 %84, 0
  br i1 %85, label %86, label %108

86:                                               ; preds = %77
  %87 = getelementptr inbounds nuw %struct.pointf_s, ptr %5, i32 0, i32 0
  %88 = load double, ptr %87, align 8, !tbaa !71
  %89 = getelementptr inbounds [2 x %struct.pointf_s], ptr %10, i64 0, i64 0
  %90 = getelementptr inbounds nuw %struct.pointf_s, ptr %89, i32 0, i32 0
  store double %88, ptr %90, align 16, !tbaa !71
  %91 = getelementptr inbounds nuw %struct.pointf_s, ptr %5, i32 0, i32 0
  %92 = load double, ptr %91, align 8, !tbaa !71
  %93 = load ptr, ptr %7, align 8, !tbaa !73
  %94 = getelementptr inbounds nuw %struct.textspan_t, ptr %93, i32 0, i32 6
  %95 = getelementptr inbounds nuw %struct.pointf_s, ptr %94, i32 0, i32 0
  %96 = load double, ptr %95, align 8, !tbaa !76
  %97 = fadd double %92, %96
  %98 = getelementptr inbounds [2 x %struct.pointf_s], ptr %10, i64 0, i64 1
  %99 = getelementptr inbounds nuw %struct.pointf_s, ptr %98, i32 0, i32 0
  store double %97, ptr %99, align 16, !tbaa !71
  %100 = getelementptr inbounds nuw %struct.pointf_s, ptr %5, i32 0, i32 1
  %101 = load double, ptr %100, align 8, !tbaa !72
  %102 = getelementptr inbounds [2 x %struct.pointf_s], ptr %10, i64 0, i64 0
  %103 = getelementptr inbounds nuw %struct.pointf_s, ptr %102, i32 0, i32 1
  store double %101, ptr %103, align 8, !tbaa !72
  %104 = getelementptr inbounds [2 x %struct.pointf_s], ptr %10, i64 0, i64 1
  %105 = getelementptr inbounds nuw %struct.pointf_s, ptr %104, i32 0, i32 1
  store double %101, ptr %105, align 8, !tbaa !72
  %106 = load ptr, ptr %6, align 8, !tbaa !3
  %107 = getelementptr inbounds [2 x %struct.pointf_s], ptr %10, i64 0, i64 0
  call void @cairogen_polyline(ptr noundef %106, ptr noundef %107, i64 noundef 2)
  br label %108

108:                                              ; preds = %86, %77, %49
  call void @llvm.lifetime.end.p0(i64 32, ptr %10) #14
  call void @llvm.lifetime.end.p0(i64 8, ptr %9) #14
  call void @llvm.lifetime.end.p0(i64 8, ptr %8) #14
  ret void
}