; Function Attrs: nounwind uwtable
define internal void @cairogen_textspan(ptr noundef readonly captures(none) %0, double %1, double %2, ptr noundef readonly captures(none) %3) #0 {
  %5 = alloca [2 x %struct.pointf_s], align 16
  %6 = getelementptr inbounds nuw i8, ptr %0, i64 32
  %7 = load ptr, ptr %6, align 8, !tbaa !56
  %8 = getelementptr inbounds nuw i8, ptr %0, i64 256
  %9 = load ptr, ptr %8, align 8, !tbaa !32
  call void @llvm.lifetime.start.p0(i64 32, ptr nonnull %5) #20
  tail call void @cairo_set_dash(ptr noundef %9, ptr noundef nonnull @dashed, i32 noundef 0, double noundef 0.000000e+00) #20
  %10 = getelementptr inbounds nuw i8, ptr %7, i64 32
  %11 = load double, ptr %10, align 8, !tbaa !38
  %12 = getelementptr inbounds nuw i8, ptr %7, i64 40
  %13 = load double, ptr %12, align 8, !tbaa !38
  %14 = getelementptr inbounds nuw i8, ptr %7, i64 48
  %15 = load double, ptr %14, align 8, !tbaa !38
  %16 = getelementptr inbounds nuw i8, ptr %7, i64 56
  %17 = load double, ptr %16, align 8, !tbaa !38
  tail call void @cairo_set_source_rgba(ptr noundef %9, double noundef %11, double noundef %13, double noundef %15, double noundef %17) #20
  %18 = getelementptr inbounds nuw i8, ptr %3, i64 64
  %19 = load i8, ptr %18, align 8, !tbaa !65
  switch i8 %19, label %24 [
    i8 114, label %20
    i8 108, label %29
  ]

20:                                               ; preds = %4
  %21 = getelementptr inbounds nuw i8, ptr %3, i64 48
  %22 = load double, ptr %21, align 8, !tbaa !67
  %23 = fsub double %1, %22
  br label %29

24:                                               ; preds = %4
  %25 = getelementptr inbounds nuw i8, ptr %3, i64 48
  %26 = load double, ptr %25, align 8, !tbaa !67
  %27 = fmul double %26, 5.000000e-01
  %28 = fsub double %1, %27
  br label %29

29:                                               ; preds = %4, %24, %20
  %.sroa.0.0 = phi double [ %28, %24 ], [ %23, %20 ], [ %1, %4 ]
  %30 = getelementptr inbounds nuw i8, ptr %3, i64 40
  %31 = load double, ptr %30, align 8, !tbaa !68
  %32 = getelementptr inbounds nuw i8, ptr %3, i64 32
  %33 = load double, ptr %32, align 8, !tbaa !69
  %34 = fadd double %31, %33
  %35 = fadd double %2, %34
  %36 = fneg double %35
  tail call void @cairo_move_to(ptr noundef %9, double noundef %.sroa.0.0, double noundef %36) #20
  tail call void @cairo_save(ptr noundef %9) #20
  tail call void @cairo_scale(ptr noundef %9, double noundef 7.500000e-01, double noundef 7.500000e-01) #20
  %37 = getelementptr inbounds nuw i8, ptr %3, i64 16
  %38 = load ptr, ptr %37, align 8, !tbaa !70
  tail call void @pango_cairo_show_layout(ptr noundef %9, ptr noundef %38) #20
  tail call void @cairo_restore(ptr noundef %9) #20
  %39 = getelementptr inbounds nuw i8, ptr %3, i64 8
  %40 = load ptr, ptr %39, align 8, !tbaa !71
  %.not = icmp eq ptr %40, null
  br i1 %.not, label %52, label %41

41:                                               ; preds = %29
  %42 = getelementptr inbounds nuw i8, ptr %40, i64 32
  %43 = load i32, ptr %42, align 8
  %44 = and i32 %43, 64
  %.not27 = icmp eq i32 %44, 0
  br i1 %.not27, label %52, label %45

45:                                               ; preds = %41
  store double %.sroa.0.0, ptr %5, align 16, !tbaa !62
  %46 = getelementptr inbounds nuw i8, ptr %3, i64 48
  %47 = load double, ptr %46, align 8, !tbaa !67
  %48 = fadd double %.sroa.0.0, %47
  %49 = getelementptr inbounds nuw i8, ptr %5, i64 16
  store double %48, ptr %49, align 16, !tbaa !62
  %50 = getelementptr inbounds nuw i8, ptr %5, i64 8
  store double %35, ptr %50, align 8, !tbaa !64
  %51 = getelementptr inbounds nuw i8, ptr %5, i64 24
  store double %35, ptr %51, align 8, !tbaa !64
  call void @cairogen_polyline(ptr noundef nonnull %0, ptr noundef nonnull %5, i64 noundef 2)
  br label %52

52:                                               ; preds = %45, %41, %29
  call void @llvm.lifetime.end.p0(i64 32, ptr nonnull %5) #20
  ret void
}